Certificate:
    Data:
        Version: 3 (0x2)
        Serial Number:
            75:ab:7a:7b:e8:54:3f:81:6a:de:d4:f9:7b:4d:b8:d5:33:c8:a9:02
        Signature Algorithm: sha256WithRSAEncryption
        Issuer: C=SV, ST=Sivar, O=Certificados Periquito Inc., OU=Certificados, CN=www.periquito.com/emailAddress=periquito@periquito.com
        Validity
            Not Before: Jun  3 07:21:35 2020 GMT
            Not After : Jun  3 07:21:35 2023 GMT
        Subject: C=SV, ST=Sivar, O=Certificados Periquito Inc., OU=Certificados, CN=www.periquito.com/emailAddress=periquito@periquito.com
        Subject Public Key Info:
            Public Key Algorithm: rsaEncryption
                RSA Public-Key: (4096 bit)
                Modulus:
                    00:be:62:c6:5f:4d:95:1f:b2:1b:a6:c7:39:d9:1d:
                    34:f7:87:b2:38:98:11:ee:9f:cc:fd:7b:79:cd:ff:
                    41:a3:5f:2e:94:65:46:4a:5e:e9:6e:30:d9:24:3a:
                    76:db:4b:ca:27:9b:ea:6a:df:43:55:1c:d2:7d:f7:
                    20:c4:a7:63:22:c9:7c:04:bb:d9:ef:a7:fa:74:f3:
                    c6:53:72:36:17:c5:ea:66:b6:ed:79:eb:d6:c4:ab:
                    6a:f0:e0:59:09:a1:9d:f1:78:f7:c0:b9:9f:c3:9b:
                    45:8a:e9:e4:c2:03:c4:24:de:ea:08:06:41:3c:9b:
                    1a:75:cf:7c:c9:bc:7d:ab:69:6b:68:62:79:77:ea:
                    67:54:59:51:57:59:b4:a6:ef:09:93:00:b1:58:08:
                    b6:33:71:b9:1a:b2:5a:21:c4:4d:7e:77:46:91:cd:
                    e3:57:ce:99:b0:7c:ca:1f:da:e7:a6:81:39:9d:1e:
                    f8:41:1e:7b:a7:df:9f:cf:d2:e6:9f:d8:ce:ab:e6:
                    78:de:ba:a5:e2:4d:5d:73:c9:11:04:53:a9:0b:8c:
                    06:0a:a9:b8:26:17:34:dd:83:f7:24:68:69:a7:b8:
                    4a:41:f6:65:06:fb:6d:bf:6f:82:20:c6:65:e2:8d:
                    76:20:be:af:cb:c1:83:a3:d4:48:65:e7:03:44:2a:
                    c1:0c:66:51:b4:d4:55:47:fa:83:ad:8a:31:58:b3:
                    59:5a:a6:fe:6f:24:5e:14:fd:c9:8b:4d:c6:f6:e5:
                    57:7a:a5:32:35:74:b7:05:4c:60:48:a2:30:40:c8:
                    57:80:61:8d:30:fc:3d:16:7b:27:8a:87:3e:bb:ab:
                    7d:3d:64:19:da:fc:57:26:91:ab:53:c7:82:40:48:
                    40:fc:c1:d3:7a:70:ba:94:4b:5a:cb:16:be:3e:e8:
                    ae:b6:59:e8:2f:e0:ce:2a:29:6c:16:6f:f0:aa:3a:
                    7f:21:74:ef:c4:fb:cd:6c:b4:a8:f1:db:e4:7a:8d:
                    0c:dc:1f:ac:60:a0:37:bf:b7:83:4e:ff:77:6c:f4:
                    14:16:f2:9f:af:04:a8:da:ea:1d:c5:9a:bd:93:4a:
                    a4:98:10:a1:37:d7:72:3e:aa:c3:ef:54:27:d7:fe:
                    35:cf:01:9b:6d:67:35:22:10:b8:83:5b:4b:8f:3b:
                    27:4d:f0:b8:1d:00:71:8c:51:32:e9:92:b8:c2:60:
                    a7:24:0c:87:74:54:9a:33:ed:17:11:c2:79:92:67:
                    bc:79:ae:d2:69:3a:1e:84:74:7c:64:67:56:24:2a:
                    8c:12:85:58:b0:23:6a:6c:ef:50:14:c2:b1:c3:8a:
                    41:76:0c:d5:3a:1d:af:23:23:c7:07:4a:3e:e2:82:
                    a3:82:c1
                Exponent: 65537 (0x10001)
        X509v3 extensions:
            X509v3 Subject Key Identifier: 
                40:2E:51:46:83:C6:D4:90:01:8F:7D:E0:0F:91:76:BD:54:7F:6C:A7
            X509v3 Authority Key Identifier: 
                keyid:40:2E:51:46:83:C6:D4:90:01:8F:7D:E0:0F:91:76:BD:54:7F:6C:A7

            X509v3 Basic Constraints: critical
                CA:TRUE
    Signature Algorithm: sha256WithRSAEncryption
         60:ae:5a:1b:46:51:d9:e0:02:b8:97:03:dd:87:2e:13:62:ff:
         8f:0c:a0:12:f7:85:25:6d:93:ea:90:b3:41:28:02:bd:d3:0d:
         29:17:f5:7f:61:cb:5d:12:91:1c:ff:61:25:a0:23:a0:34:05:
         f1:81:ef:24:d3:7a:ac:53:53:00:0f:08:97:27:4a:23:20:2c:
         48:fa:3f:0c:b0:bc:c3:0f:5f:14:ad:17:49:c7:f2:67:03:4a:
         ca:ad:c5:0a:23:40:a6:69:5e:ba:97:63:83:a2:b2:4a:b4:58:
         89:43:6b:d8:8b:ed:fc:4a:6a:27:e2:f1:89:34:b7:30:6a:12:
         dd:78:32:e9:10:f6:da:69:2b:f8:b5:ef:99:5f:67:f7:b9:da:
         c6:9c:1d:b4:66:75:39:51:50:6c:9a:40:37:61:6e:a4:7c:64:
         f2:c2:f0:9e:c7:ab:37:63:a7:0f:70:cd:53:0b:97:91:d7:44:
         dc:8d:7a:f3:a7:a2:78:1f:c0:cb:f1:e0:dc:54:e3:60:4f:8f:
         16:07:cc:e4:7d:b6:26:a5:40:4d:c0:0d:52:66:7c:26:05:51:
         45:79:36:30:d7:16:f8:39:9c:f9:26:82:02:25:10:b6:a9:36:
         d6:62:f3:23:d0:a0:24:9b:92:5a:0d:4d:29:98:f5:db:50:c7:
         bc:27:93:21:97:50:79:89:c3:78:50:6e:1d:92:54:8c:1c:9a:
         b7:ff:83:94:a5:97:72:da:eb:8f:41:a2:ae:8e:ca:1c:46:4c:
         ac:70:e2:b2:6a:a2:d0:97:5f:ea:02:b6:3f:fb:2d:d7:8b:31:
         b2:8b:c9:98:87:8d:39:a1:e6:c6:a4:88:c5:a1:1e:9e:99:ba:
         1a:5e:34:43:b2:75:6f:7e:ac:f5:7f:96:8d:2a:ad:54:13:74:
         4f:20:3d:7a:d0:5c:c6:73:6f:bf:e8:07:68:e7:ee:ab:0e:df:
         4e:29:c4:41:dc:38:86:ff:cf:ed:a3:9d:43:4e:b6:51:18:27:
         48:e5:81:a4:b1:a0:bb:7e:7a:b5:41:15:68:70:b8:86:91:48:
         5b:5d:34:52:48:7e:db:d2:52:9f:02:82:7e:4d:98:2a:48:e5:
         ed:9c:ab:0e:f6:af:1f:a8:98:07:c9:c6:de:47:cf:e5:8a:4a:
         55:87:e1:d9:45:7d:ab:ea:85:6b:94:39:70:7a:75:ed:99:a1:
         10:0e:71:fb:47:7d:cd:d0:26:b3:ed:61:a9:be:be:be:66:e1:
         01:32:c8:95:cd:b3:35:3e:21:04:a4:a7:25:50:ab:f0:34:02:
         5e:70:00:6a:45:e6:e3:19:9e:8b:46:df:62:9c:2d:dc:10:5f:
         b4:ad:c3:b9:d5:07:f7:e6
-----BEGIN CERTIFICATE-----
MIIGHzCCBAegAwIBAgIUdat6e+hUP4Fq3tT5e0241TPIqQIwDQYJKoZIhvcNAQEL
BQAwgZ4xCzAJBgNVBAYTAlNWMQ4wDAYDVQQIDAVTaXZhcjEkMCIGA1UECgwbQ2Vy
dGlmaWNhZG9zIFBlcmlxdWl0byBJbmMuMRUwEwYDVQQLDAxDZXJ0aWZpY2Fkb3Mx
GjAYBgNVBAMMEXd3dy5wZXJpcXVpdG8uY29tMSYwJAYJKoZIhvcNAQkBFhdwZXJp
cXVpdG9AcGVyaXF1aXRvLmNvbTAeFw0yMDA2MDMwNzIxMzVaFw0yMzA2MDMwNzIx
MzVaMIGeMQswCQYDVQQGEwJTVjEOMAwGA1UECAwFU2l2YXIxJDAiBgNVBAoMG0Nl
cnRpZmljYWRvcyBQZXJpcXVpdG8gSW5jLjEVMBMGA1UECwwMQ2VydGlmaWNhZG9z
MRowGAYDVQQDDBF3d3cucGVyaXF1aXRvLmNvbTEmMCQGCSqGSIb3DQEJARYXcGVy
aXF1aXRvQHBlcmlxdWl0by5jb20wggIiMA0GCSqGSIb3DQEBAQUAA4ICDwAwggIK
AoICAQC+YsZfTZUfshumxznZHTT3h7I4mBHun8z9e3nN/0GjXy6UZUZKXuluMNkk
OnbbS8onm+pq30NVHNJ99yDEp2MiyXwEu9nvp/p088ZTcjYXxepmtu1569bEq2rw
4FkJoZ3xePfAuZ/Dm0WK6eTCA8Qk3uoIBkE8mxp1z3zJvH2raWtoYnl36mdUWVFX
WbSm7wmTALFYCLYzcbkaslohxE1+d0aRzeNXzpmwfMof2uemgTmdHvhBHnun35/P
0uaf2M6r5njeuqXiTV1zyREEU6kLjAYKqbgmFzTdg/ckaGmnuEpB9mUG+22/b4Ig
xmXijXYgvq/LwYOj1Ehl5wNEKsEMZlG01FVH+oOtijFYs1lapv5vJF4U/cmLTcb2
5Vd6pTI1dLcFTGBIojBAyFeAYY0w/D0WeyeKhz67q309ZBna/FcmkatTx4JASED8
wdN6cLqUS1rLFr4+6K62Wegv4M4qKWwWb/CqOn8hdO/E+81stKjx2+R6jQzcH6xg
oDe/t4NO/3ds9BQW8p+vBKja6h3Fmr2TSqSYEKE313I+qsPvVCfX/jXPAZttZzUi
ELiDW0uPOydN8LgdAHGMUTLpkrjCYKckDId0VJoz7RcRwnmSZ7x5rtJpOh6EdHxk
Z1YkKowShViwI2ps71AUwrHDikF2DNU6Ha8jI8cHSj7igqOCwQIDAQABo1MwUTAd
BgNVHQ4EFgQUQC5RRoPG1JABj33gD5F2vVR/bKcwHwYDVR0jBBgwFoAUQC5RRoPG
1JABj33gD5F2vVR/bKcwDwYDVR0TAQH/BAUwAwEB/zANBgkqhkiG9w0BAQsFAAOC
AgEAYK5aG0ZR2eACuJcD3YcuE2L/jwygEveFJW2T6pCzQSgCvdMNKRf1f2HLXRKR
HP9hJaAjoDQF8YHvJNN6rFNTAA8IlydKIyAsSPo/DLC8ww9fFK0XScfyZwNKyq3F
CiNApmleupdjg6KySrRYiUNr2Ivt/EpqJ+LxiTS3MGoS3Xgy6RD22mkr+LXvmV9n
97naxpwdtGZ1OVFQbJpAN2FupHxk8sLwnserN2OnD3DNUwuXkddE3I1686eieB/A
y/Hg3FTjYE+PFgfM5H22JqVATcANUmZ8JgVRRXk2MNcW+Dmc+SaCAiUQtqk21mLz
I9CgJJuSWg1NKZj121DHvCeTIZdQeYnDeFBuHZJUjByat/+DlKWXctrrj0Giro7K
HEZMrHDismqi0Jdf6gK2P/st14sxsovJmIeNOaHmxqSIxaEenpm6Gl40Q7J1b36s
9X+WjSqtVBN0TyA9etBcxnNvv+gHaOfuqw7fTinEQdw4hv/P7aOdQ062URgnSOWB
pLGgu356tUEVaHC4hpFIW100Ukh+29JSnwKCfk2YKkjl7ZyrDvavH6iYB8nG3kfP
5YpKVYfh2UV9q+qFa5Q5cHp17ZmhEA5x+0d9zdAms+1hqb6+vmbhATLIlc2zNT4h
BKSnJVCr8DQCXnAAakXm4xmei0bfYpwt3BBftK3DudUH9+Y=
-----END CERTIFICATE-----
