Certificate:
    Data:
        Version: 3 (0x2)
        Serial Number: 0 (0x0)
        Signature Algorithm: sha1WithRSAEncryption
        Issuer: C=US, ST=Santa Ana, L=Santa Ana, O=Panes Chucos, OU=Panes chucos Team, CN=panes chucos/emailAddress=paneschucos@occ.ues.edu.sv
        Validity
            Not Before: Jun  6 04:01:04 2020 GMT
            Not After : Jun  6 04:01:04 2021 GMT
        Subject: C=US, ST=Santa Ana, L=Santa Ana, O=Panes Chucos, OU=Panes chucos Team, CN=panes chucos/emailAddress=paneschucos@occ.ues.edu.sv
        Subject Public Key Info:
            Public Key Algorithm: rsaEncryption
                RSA Public-Key: (4096 bit)
                Modulus:
                    00:ce:51:e9:ae:59:97:89:58:27:41:a5:59:02:be:
                    ba:21:2d:6c:02:f9:ff:f1:f4:74:18:e2:36:74:d2:
                    ef:f3:90:3a:2b:51:ef:bd:8c:1d:49:f6:bf:f9:75:
                    7f:78:e4:49:53:dc:45:e9:27:68:e4:b5:15:bf:58:
                    26:41:a5:74:18:92:b2:09:b1:64:1c:9a:c2:47:5e:
                    b5:a7:2a:11:2f:7b:81:00:11:59:0c:cf:c4:aa:7d:
                    5d:79:39:eb:1d:11:15:68:1b:9f:c8:09:88:c0:34:
                    f6:63:bb:05:ae:ab:4a:2e:29:fe:36:2b:2e:63:d6:
                    39:da:71:45:34:e5:13:b3:1d:ed:eb:98:44:a1:dd:
                    25:fb:f8:89:15:6c:b2:63:ee:79:b4:8d:fc:da:62:
                    3e:24:bb:3e:52:52:9e:16:bf:48:9d:23:96:ec:00:
                    7c:bc:23:c1:88:2d:d2:cc:f0:27:06:69:11:0f:80:
                    f7:eb:2a:7d:75:27:b5:ea:dc:c9:87:71:d2:eb:b5:
                    38:52:c4:3e:72:4a:60:9a:df:83:45:63:c9:47:b7:
                    82:0a:1d:a3:b6:e7:c2:69:73:a4:73:ce:e7:0b:b5:
                    07:b1:d5:97:f3:c3:f4:5d:80:5e:e7:f9:53:be:0a:
                    b4:f1:30:73:3d:92:94:b8:2a:11:63:48:95:99:92:
                    38:9c:38:e3:e4:ad:bf:82:71:71:63:1d:a5:c6:11:
                    a1:d4:14:b9:0f:61:21:0c:30:a4:fc:60:98:08:ee:
                    ff:c4:0e:f9:c5:fe:62:42:34:6a:80:b8:88:80:ab:
                    e9:c6:21:80:a7:4d:21:a8:69:e2:68:fe:ca:02:c3:
                    09:d3:0f:b4:98:9a:00:db:32:98:40:f5:cf:96:6a:
                    8a:1f:1c:c1:b4:30:37:23:58:23:25:23:ad:40:49:
                    df:4a:58:eb:bb:e2:89:74:13:13:db:bd:6c:dd:41:
                    4b:33:73:88:e7:25:19:8f:58:64:53:d7:ff:ec:29:
                    b3:2d:15:5a:5b:66:a6:db:0c:e2:a6:4d:e1:51:61:
                    0b:e7:31:d2:e8:4c:e8:13:e4:76:c8:28:2a:3d:44:
                    d9:34:ac:02:11:88:86:8e:b1:da:7f:90:d4:e1:e0:
                    22:9f:e6:97:ed:2c:58:2d:ac:05:ee:01:58:1e:9f:
                    75:f5:88:97:a5:92:32:92:7a:00:1f:62:98:ba:e5:
                    bd:23:50:ea:d6:c6:de:a7:19:90:aa:bb:cc:e5:04:
                    60:a4:09:26:45:7d:df:c3:4f:39:ae:94:4f:e0:fb:
                    35:7a:04:b5:c6:d0:86:73:be:6e:ec:be:3a:f2:b8:
                    9d:dd:24:d3:34:63:9d:37:29:c7:ae:73:fd:ab:90:
                    6d:e8:93
                Exponent: 65537 (0x10001)
        X509v3 extensions:
            X509v3 Subject Key Identifier: 
                22:E6:59:BB:4D:6E:A9:43:50:B6:B6:3C:3D:1E:E9:15:7B:6E:51:93
            X509v3 Authority Key Identifier: 
                keyid:22:E6:59:BB:4D:6E:A9:43:50:B6:B6:3C:3D:1E:E9:15:7B:6E:51:93

            X509v3 Basic Constraints: critical
                CA:TRUE
    Signature Algorithm: sha1WithRSAEncryption
         16:0b:91:21:db:08:a7:b9:d8:51:42:dd:37:19:75:81:b8:be:
         58:72:16:31:cc:37:83:66:7a:71:0f:2e:05:2a:8b:00:7a:59:
         7f:13:95:1b:8c:7e:68:e1:ce:e9:3e:5e:cf:94:2c:9b:2a:c5:
         4c:8c:f6:3c:b4:bf:76:70:ea:ee:f8:39:3b:16:41:e2:50:49:
         79:13:2e:61:89:4f:3f:9f:fc:54:28:63:a1:0a:2b:35:6f:bb:
         45:4c:cd:43:da:22:c8:92:45:05:d9:bb:9b:11:c5:49:ce:49:
         91:f2:11:01:24:f1:70:6a:cc:bc:31:cc:54:23:b9:52:a2:94:
         7c:de:74:f4:cf:25:18:a2:db:f0:9f:47:47:43:e4:a7:47:c9:
         48:df:23:ce:3e:71:1e:b3:5e:43:09:65:56:bc:b2:c6:f0:1b:
         f0:3e:b9:4e:d4:cf:e1:a7:c7:61:8b:84:a9:70:fd:b6:c4:f9:
         93:31:25:04:1d:33:6f:c5:91:17:5b:e1:73:85:52:11:19:db:
         4d:57:c9:4b:79:55:3f:ff:82:25:fa:7e:58:d0:37:4a:28:80:
         1c:90:03:9d:45:7a:3b:28:45:c7:8c:55:65:fd:e0:cf:31:19:
         b2:83:1c:01:d4:35:10:de:8b:6f:55:28:66:25:d1:69:ec:67:
         87:1c:1e:eb:f4:11:9c:ae:43:be:ba:8a:45:cd:c2:c2:7d:16:
         81:c5:c1:4c:ad:74:54:45:ff:ee:78:8b:67:99:cd:fc:b8:9e:
         de:f6:90:97:db:56:b5:b6:1b:26:f8:17:6b:41:67:8f:ad:a8:
         9c:84:24:c6:a4:45:c2:66:e2:23:2b:a6:75:b9:a0:15:74:6b:
         35:d6:6a:27:1d:9f:7d:6b:ba:23:fb:82:31:70:5f:2e:da:5f:
         29:62:86:9d:d3:46:75:d8:e1:f1:1b:d0:15:71:18:0b:23:f5:
         18:67:21:02:8a:16:fe:f1:06:02:bc:b4:a4:21:13:d8:36:60:
         7d:0b:68:76:9d:88:05:ff:e6:f1:7c:52:72:6f:eb:82:5d:13:
         82:24:d6:21:58:d3:98:60:5f:9b:c2:d9:88:90:b8:45:96:18:
         96:fa:70:df:87:8a:b9:56:ce:55:5a:d5:ae:15:df:3a:05:f9:
         24:39:86:c3:03:ac:90:a5:56:38:48:9e:23:51:54:45:95:ae:
         85:45:9d:67:45:cb:cb:6b:55:61:8a:1d:4e:7a:26:a8:31:f1:
         0c:f3:d9:db:43:9b:db:03:1f:9b:bb:5d:9b:bc:4b:ea:e8:30:
         49:8f:e9:d4:36:a5:a0:51:9e:c0:9b:ce:af:ff:30:bd:2d:d7:
         5c:e1:51:e0:3a:a4:af:a5
-----BEGIN CERTIFICATE-----
MIIGJDCCBAygAwIBAgIBADANBgkqhkiG9w0BAQUFADCBqjELMAkGA1UEBhMCVVMx
EjAQBgNVBAgMCVNhbnRhIEFuYTESMBAGA1UEBwwJU2FudGEgQW5hMRUwEwYDVQQK
DAxQYW5lcyBDaHVjb3MxGjAYBgNVBAsMEVBhbmVzIGNodWNvcyBUZWFtMRUwEwYD
VQQDDAxwYW5lcyBjaHVjb3MxKTAnBgkqhkiG9w0BCQEWGnBhbmVzY2h1Y29zQG9j
Yy51ZXMuZWR1LnN2MB4XDTIwMDYwNjA0MDEwNFoXDTIxMDYwNjA0MDEwNFowgaox
CzAJBgNVBAYTAlVTMRIwEAYDVQQIDAlTYW50YSBBbmExEjAQBgNVBAcMCVNhbnRh
IEFuYTEVMBMGA1UECgwMUGFuZXMgQ2h1Y29zMRowGAYDVQQLDBFQYW5lcyBjaHVj
b3MgVGVhbTEVMBMGA1UEAwwMcGFuZXMgY2h1Y29zMSkwJwYJKoZIhvcNAQkBFhpw
YW5lc2NodWNvc0BvY2MudWVzLmVkdS5zdjCCAiIwDQYJKoZIhvcNAQEBBQADggIP
ADCCAgoCggIBAM5R6a5Zl4lYJ0GlWQK+uiEtbAL5//H0dBjiNnTS7/OQOitR772M
HUn2v/l1f3jkSVPcReknaOS1Fb9YJkGldBiSsgmxZByawkdetacqES97gQARWQzP
xKp9XXk56x0RFWgbn8gJiMA09mO7Ba6rSi4p/jYrLmPWOdpxRTTlE7Md7euYRKHd
Jfv4iRVssmPuebSN/NpiPiS7PlJSnha/SJ0jluwAfLwjwYgt0szwJwZpEQ+A9+sq
fXUntercyYdx0uu1OFLEPnJKYJrfg0VjyUe3ggodo7bnwmlzpHPO5wu1B7HVl/PD
9F2AXuf5U74KtPEwcz2SlLgqEWNIlZmSOJw44+Stv4JxcWMdpcYRodQUuQ9hIQww
pPxgmAju/8QO+cX+YkI0aoC4iICr6cYhgKdNIahp4mj+ygLDCdMPtJiaANsymED1
z5Zqih8cwbQwNyNYIyUjrUBJ30pY67viiXQTE9u9bN1BSzNziOclGY9YZFPX/+wp
sy0VWltmptsM4qZN4VFhC+cx0uhM6BPkdsgoKj1E2TSsAhGIho6x2n+Q1OHgIp/m
l+0sWC2sBe4BWB6fdfWIl6WSMpJ6AB9imLrlvSNQ6tbG3qcZkKq7zOUEYKQJJkV9
38NPOa6UT+D7NXoEtcbQhnO+buy+OvK4nd0k0zRjnTcpx65z/auQbeiTAgMBAAGj
UzBRMB0GA1UdDgQWBBQi5lm7TW6pQ1C2tjw9HukVe25RkzAfBgNVHSMEGDAWgBQi
5lm7TW6pQ1C2tjw9HukVe25RkzAPBgNVHRMBAf8EBTADAQH/MA0GCSqGSIb3DQEB
BQUAA4ICAQAWC5Eh2winudhRQt03GXWBuL5YchYxzDeDZnpxDy4FKosAell/E5Ub
jH5o4c7pPl7PlCybKsVMjPY8tL92cOru+Dk7FkHiUEl5Ey5hiU8/n/xUKGOhCis1
b7tFTM1D2iLIkkUF2bubEcVJzkmR8hEBJPFwasy8McxUI7lSopR83nT0zyUYotvw
n0dHQ+SnR8lI3yPOPnEes15DCWVWvLLG8BvwPrlO1M/hp8dhi4SpcP22xPmTMSUE
HTNvxZEXW+FzhVIRGdtNV8lLeVU//4Il+n5Y0DdKKIAckAOdRXo7KEXHjFVl/eDP
MRmygxwB1DUQ3otvVShmJdFp7GeHHB7r9BGcrkO+uopFzcLCfRaBxcFMrXRURf/u
eItnmc38uJ7e9pCX21a1thsm+BdrQWePraichCTGpEXCZuIjK6Z1uaAVdGs11mon
HZ99a7oj+4IxcF8u2l8pYoad00Z12OHxG9AVcRgLI/UYZyECihb+8QYCvLSkIRPY
NmB9C2h2nYgF/+bxfFJyb+uCXROCJNYhWNOYYF+bwtmIkLhFlhiW+nDfh4q5Vs5V
WtWuFd86BfkkOYbDA6yQpVY4SJ4jUVRFla6FRZ1nRcvLa1Vhih1OeiaoMfEM89nb
Q5vbAx+bu12bvEvq6DBJj+nUNqWgUZ7Am86v/zC9Lddc4VHgOqSvpQ==
-----END CERTIFICATE-----
